; Function Attrs: nofree norecurse nosync nounwind memory(read, argmem: readwrite, inaccessiblemem: none) uwtable
define void @H5F_addr_decode_len(i64 noundef %0, ptr nocapture noundef %1, ptr nocapture noundef %2) local_unnamed_addr #9 {
  store i64 0, ptr %2, align 8
  %.not18 = icmp eq i64 %0, 0
  br i1 %.not18, label %.critedge, label %.lr.ph

.lr.ph:                                           ; preds = %3, %15
  %.017 = phi i1 [ %spec.select, %15 ], [ true, %3 ]
  %.01416 = phi i32 [ %16, %15 ], [ 0, %3 ]
  %4 = load ptr, ptr %1, align 8
  %5 = getelementptr inbounds i8, ptr %4, i64 1
  store ptr %5, ptr %1, align 8
  %6 = load i8, ptr %4, align 1
  %.not = icmp eq i8 %6, -1
  %spec.select = select i1 %.not, i1 %.017, i1 false
  %7 = icmp ult i32 %.01416, 8
  br i1 %7, label %8, label %15

8:                                                ; preds = %.lr.ph
  %9 = zext i8 %6 to i64
  %10 = shl nuw nsw i32 %.01416, 3
  %11 = zext nneg i32 %10 to i64
  %12 = shl nuw i64 %9, %11
  %13 = load i64, ptr %2, align 8
  %14 = or i64 %13, %12
  store i64 %14, ptr %2, align 8
  br label %15

15:                                               ; preds = %.lr.ph, %8
  %16 = add i32 %.01416, 1
  %17 = zext i32 %16 to i64
  %18 = icmp ult i64 %17, %0
  br i1 %18, label %.lr.ph, label %._crit_edge

._crit_edge:                                      ; preds = %15
  br i1 %spec.select, label %.critedge, label %19

.critedge:                                        ; preds = %3, %._crit_edge
  store i64 -1, ptr %2, align 8
  br label %19

19:                                               ; preds = %.critedge, %._crit_edge
  ret void
}